target datalayout = "e-m:e-p270:32:32-p271:32:32-p272:64:64-i64:64-i128:128-f80:128-n8:16:32:64-S128"
target triple = "x86_64-pc-linux-gnu"

%struct.gcm_funcs_st = type { ptr, ptr, ptr }
%struct.gcm128_context = type { %union.anon, %union.anon, %union.anon, %union.anon, %union.anon, %union.anon, [16 x %struct.u128], %struct.gcm_funcs_st, i32, i32, ptr, ptr, [48 x i8] }
%union.anon = type { [2 x i64] }
%struct.u128 = type { i64, i64 }

; Function Attrs: nounwind uwtable
define i32 @CRYPTO_gcm128_aad(ptr noundef %0, ptr noundef %1, i64 noundef %2) #0 {
  %4 = alloca i32, align 4
  %5 = alloca ptr, align 8
  %6 = alloca ptr, align 8
  %7 = alloca i64, align 8
  %8 = alloca i64, align 8
  %9 = alloca i32, align 4
  %10 = alloca i64, align 8
  %11 = alloca i32, align 4
  store ptr %0, ptr %5, align 8, !tbaa !25
  store ptr %1, ptr %6, align 8, !tbaa !17
  store i64 %2, ptr %7, align 8, !tbaa !19
  call void @llvm.lifetime.start.p0(i64 8, ptr %8) #5
  call void @llvm.lifetime.start.p0(i64 4, ptr %9) #5
  call void @llvm.lifetime.start.p0(i64 8, ptr %10) #5
  %12 = load ptr, ptr %5, align 8, !tbaa !25
  %13 = getelementptr inbounds nuw %struct.gcm128_context, ptr %12, i32 0, i32 3
  %14 = getelementptr inbounds [2 x i64], ptr %13, i64 0, i64 0
  %15 = load i64, ptr %14, align 8, !tbaa !30
  store i64 %15, ptr %10, align 8, !tbaa !21
  %16 = load ptr, ptr %5, align 8, !tbaa !25
  %17 = getelementptr inbounds nuw %struct.gcm128_context, ptr %16, i32 0, i32 3
  %18 = getelementptr inbounds [2 x i64], ptr %17, i64 0, i64 1
  %19 = load i64, ptr %18, align 8, !tbaa !30
  %20 = icmp ne i64 %19, 0
  br i1 %20, label %21, label %22

21:                                               ; preds = %3
  store i32 -2, ptr %4, align 4
  store i32 1, ptr %11, align 4
  br label %145

22:                                               ; preds = %3
  %23 = load i64, ptr %7, align 8, !tbaa !19
  %24 = load i64, ptr %10, align 8, !tbaa !21
  %25 = add i64 %24, %23
  store i64 %25, ptr %10, align 8, !tbaa !21
  %26 = load i64, ptr %10, align 8, !tbaa !21
  %27 = icmp ugt i64 %26, 2305843009213693952
  br i1 %27, label %32, label %28

28:                                               ; preds = %22
  %29 = load i64, ptr %10, align 8, !tbaa !21
  %30 = load i64, ptr %7, align 8, !tbaa !19
  %31 = icmp ult i64 %29, %30
  br i1 %31, label %32, label %33

32:                                               ; preds = %28, %22
  store i32 -1, ptr %4, align 4
  store i32 1, ptr %11, align 4
  br label %145

33:                                               ; preds = %28
  %34 = load i64, ptr %10, align 8, !tbaa !21
  %35 = load ptr, ptr %5, align 8, !tbaa !25
  %36 = getelementptr inbounds nuw %struct.gcm128_context, ptr %35, i32 0, i32 3
  %37 = getelementptr inbounds [2 x i64], ptr %36, i64 0, i64 0
  store i64 %34, ptr %37, align 8, !tbaa !30
  %38 = load ptr, ptr %5, align 8, !tbaa !25
  %39 = getelementptr inbounds nuw %struct.gcm128_context, ptr %38, i32 0, i32 9
  %40 = load i32, ptr %39, align 4, !tbaa !34
  store i32 %40, ptr %9, align 4, !tbaa !15
  %41 = load i32, ptr %9, align 4, !tbaa !15
  %42 = icmp ne i32 %41, 0
  br i1 %42, label %43, label %90

43:                                               ; preds = %33
  br label %44

44:                                               ; preds = %52, %43
  %45 = load i32, ptr %9, align 4, !tbaa !15
  %46 = icmp ne i32 %45, 0
  br i1 %46, label %47, label %50

47:                                               ; preds = %44
  %48 = load i64, ptr %7, align 8, !tbaa !19
  %49 = icmp ne i64 %48, 0
  br label %50

50:                                               ; preds = %47, %44
  %51 = phi i1 [ false, %44 ], [ %49, %47 ]
  br i1 %51, label %52, label %71

52:                                               ; preds = %50
  %53 = load ptr, ptr %6, align 8, !tbaa !17
  %54 = getelementptr inbounds nuw i8, ptr %53, i32 1
  store ptr %54, ptr %6, align 8, !tbaa !17
  %55 = load i8, ptr %53, align 1, !tbaa !30
  %56 = zext i8 %55 to i32
  %57 = load ptr, ptr %5, align 8, !tbaa !25
  %58 = getelementptr inbounds nuw %struct.gcm128_context, ptr %57, i32 0, i32 4
  %59 = load i32, ptr %9, align 4, !tbaa !15
  %60 = zext i32 %59 to i64
  %61 = getelementptr inbounds nuw [16 x i8], ptr %58, i64 0, i64 %60
  %62 = load i8, ptr %61, align 1, !tbaa !30
  %63 = zext i8 %62 to i32
  %64 = xor i32 %63, %56
  %65 = trunc i32 %64 to i8
  store i8 %65, ptr %61, align 1, !tbaa !30
  %66 = load i64, ptr %7, align 8, !tbaa !19
  %67 = add i64 %66, -1
  store i64 %67, ptr %7, align 8, !tbaa !19
  %68 = load i32, ptr %9, align 4, !tbaa !15
  %69 = add i32 %68, 1
  %70 = urem i32 %69, 16
  store i32 %70, ptr %9, align 4, !tbaa !15
  br label %44, !llvm.loop !43

71:                                               ; preds = %50
  %72 = load i32, ptr %9, align 4, !tbaa !15
  %73 = icmp eq i32 %72, 0
  br i1 %73, label %74, label %85

74:                                               ; preds = %71
  %75 = load ptr, ptr %5, align 8, !tbaa !25
  %76 = getelementptr inbounds nuw %struct.gcm128_context, ptr %75, i32 0, i32 7
  %77 = getelementptr inbounds nuw %struct.gcm_funcs_st, ptr %76, i32 0, i32 2
  %78 = load ptr, ptr %77, align 8, !tbaa !37
  %79 = load ptr, ptr %5, align 8, !tbaa !25
  %80 = getelementptr inbounds nuw %struct.gcm128_context, ptr %79, i32 0, i32 4
  %81 = getelementptr inbounds [2 x i64], ptr %80, i64 0, i64 0
  %82 = load ptr, ptr %5, align 8, !tbaa !25
  %83 = getelementptr inbounds nuw %struct.gcm128_context, ptr %82, i32 0, i32 6
  %84 = getelementptr inbounds [16 x %struct.u128], ptr %83, i64 0, i64 0
  call void %78(ptr noundef %81, ptr noundef %84)
  br label %89

85:                                               ; preds = %71
  %86 = load i32, ptr %9, align 4, !tbaa !15
  %87 = load ptr, ptr %5, align 8, !tbaa !25
  %88 = getelementptr inbounds nuw %struct.gcm128_context, ptr %87, i32 0, i32 9
  store i32 %86, ptr %88, align 4, !tbaa !34
  store i32 0, ptr %4, align 4
  store i32 1, ptr %11, align 4
  br label %145

89:                                               ; preds = %74
  br label %90

90:                                               ; preds = %89, %33
  %91 = load i64, ptr %7, align 8, !tbaa !19
  %92 = and i64 %91, -16
  store i64 %92, ptr %8, align 8, !tbaa !19
  %93 = icmp ne i64 %92, 0
  br i1 %93, label %94, label %113

94:                                               ; preds = %90
  %95 = load ptr, ptr %5, align 8, !tbaa !25
  %96 = getelementptr inbounds nuw %struct.gcm128_context, ptr %95, i32 0, i32 7
  %97 = getelementptr inbounds nuw %struct.gcm_funcs_st, ptr %96, i32 0, i32 1
  %98 = load ptr, ptr %97, align 8, !tbaa !44
  %99 = load ptr, ptr %5, align 8, !tbaa !25
  %100 = getelementptr inbounds nuw %struct.gcm128_context, ptr %99, i32 0, i32 4
  %101 = getelementptr inbounds [2 x i64], ptr %100, i64 0, i64 0
  %102 = load ptr, ptr %5, align 8, !tbaa !25
  %103 = getelementptr inbounds nuw %struct.gcm128_context, ptr %102, i32 0, i32 6
  %104 = getelementptr inbounds [16 x %struct.u128], ptr %103, i64 0, i64 0
  %105 = load ptr, ptr %6, align 8, !tbaa !17
  %106 = load i64, ptr %8, align 8, !tbaa !19
  call void %98(ptr noundef %101, ptr noundef %104, ptr noundef %105, i64 noundef %106)
  %107 = load i64, ptr %8, align 8, !tbaa !19
  %108 = load ptr, ptr %6, align 8, !tbaa !17
  %109 = getelementptr inbounds nuw i8, ptr %108, i64 %107
  store ptr %109, ptr %6, align 8, !tbaa !17
  %110 = load i64, ptr %8, align 8, !tbaa !19
  %111 = load i64, ptr %7, align 8, !tbaa !19
  %112 = sub i64 %111, %110
  store i64 %112, ptr %7, align 8, !tbaa !19
  br label %113

113:                                              ; preds = %94, %90
  %114 = load i64, ptr %7, align 8, !tbaa !19
  %115 = icmp ne i64 %114, 0
  br i1 %115, label %116, label %141

116:                                              ; preds = %113
  %117 = load i64, ptr %7, align 8, !tbaa !19
  %118 = trunc i64 %117 to i32
  store i32 %118, ptr %9, align 4, !tbaa !15
  store i64 0, ptr %8, align 8, !tbaa !19
  br label %119

119:                                              ; preds = %137, %116
  %120 = load i64, ptr %8, align 8, !tbaa !19
  %121 = load i64, ptr %7, align 8, !tbaa !19
  %122 = icmp ult i64 %120, %121
  br i1 %122, label %123, label %140

123:                                              ; preds = %119
  %124 = load ptr, ptr %6, align 8, !tbaa !17
  %125 = load i64, ptr %8, align 8, !tbaa !19
  %126 = getelementptr inbounds nuw i8, ptr %124, i64 %125
  %127 = load i8, ptr %126, align 1, !tbaa !30
  %128 = zext i8 %127 to i32
  %129 = load ptr, ptr %5, align 8, !tbaa !25
  %130 = getelementptr inbounds nuw %struct.gcm128_context, ptr %129, i32 0, i32 4
  %131 = load i64, ptr %8, align 8, !tbaa !19
  %132 = getelementptr inbounds nuw [16 x i8], ptr %130, i64 0, i64 %131
  %133 = load i8, ptr %132, align 1, !tbaa !30
  %134 = zext i8 %133 to i32
  %135 = xor i32 %134, %128
  %136 = trunc i32 %135 to i8
  store i8 %136, ptr %132, align 1, !tbaa !30
  br label %137

137:                                              ; preds = %123
  %138 = load i64, ptr %8, align 8, !tbaa !19
  %139 = add i64 %138, 1
  store i64 %139, ptr %8, align 8, !tbaa !19
  br label %119, !llvm.loop !45

140:                                              ; preds = %119
  br label %141

141:                                              ; preds = %140, %113
  %142 = load i32, ptr %9, align 4, !tbaa !15
  %143 = load ptr, ptr %5, align 8, !tbaa !25
  %144 = getelementptr inbounds nuw %struct.gcm128_context, ptr %143, i32 0, i32 9
  store i32 %142, ptr %144, align 4, !tbaa !34
  store i32 0, ptr %4, align 4
  store i32 1, ptr %11, align 4
  br label %145

145:                                              ; preds = %141, %85, %32, %21
  call void @llvm.lifetime.end.p0(i64 8, ptr %10) #5
  call void @llvm.lifetime.end.p0(i64 4, ptr %9) #5
  call void @llvm.lifetime.end.p0(i64 8, ptr %8) #5
  %146 = load i32, ptr %4, align 4
  ret i32 %146
}