; Function Attrs: nounwind uwtable
define range(i32 -2, 1) i32 @CRYPTO_gcm128_aad(ptr noundef %0, ptr noundef %1, i64 noundef %2) local_unnamed_addr #0 {
  %4 = getelementptr inbounds nuw i8, ptr %0, i64 48
  %5 = getelementptr inbounds nuw i8, ptr %0, i64 56
  %6 = load i64, ptr %5, align 8, !tbaa !12
  %.not = icmp eq i64 %6, 0
  br i1 %.not, label %7, label %57

7:                                                ; preds = %3
  %8 = load i64, ptr %4, align 8, !tbaa !12
  %9 = add i64 %8, %2
  %10 = icmp ugt i64 %9, 2305843009213693952
  %11 = icmp ult i64 %9, %2
  %or.cond = or i1 %10, %11
  br i1 %or.cond, label %57, label %12

12:                                               ; preds = %7
  store i64 %9, ptr %4, align 8, !tbaa !12
  %13 = getelementptr inbounds nuw i8, ptr %0, i64 380
  %14 = load i32, ptr %13, align 4, !tbaa !18
  %.not58 = icmp eq i32 %14, 0
  br i1 %.not58, label %37, label %.preheader

.preheader:                                       ; preds = %12
  %.not67 = icmp eq i64 %2, 0
  br i1 %.not67, label %.sink.split, label %.lr.ph

.lr.ph:                                           ; preds = %.preheader
  %15 = getelementptr inbounds nuw i8, ptr %0, i64 64
  br label %16

16:                                               ; preds = %.lr.ph, %16
  %.163 = phi i32 [ %14, %.lr.ph ], [ %25, %16 ]
  %.14762 = phi i64 [ %2, %.lr.ph ], [ %23, %16 ]
  %.15061 = phi ptr [ %1, %.lr.ph ], [ %17, %16 ]
  %17 = getelementptr inbounds nuw i8, ptr %.15061, i64 1
  %18 = load i8, ptr %.15061, align 1, !tbaa !12
  %19 = zext i32 %.163 to i64
  %20 = getelementptr inbounds nuw [16 x i8], ptr %15, i64 0, i64 %19
  %21 = load i8, ptr %20, align 1, !tbaa !12
  %22 = xor i8 %21, %18
  store i8 %22, ptr %20, align 1, !tbaa !12
  %23 = add nsw i64 %.14762, -1
  %24 = add i32 %.163, 1
  %25 = and i32 %24, 15
  %26 = and i32 %.163, 15
  %27 = icmp ne i32 %26, 15
  %28 = icmp ne i64 %23, 0
  %29 = select i1 %27, i1 %28, i1 false
  br i1 %29, label %16, label %._crit_edge, !llvm.loop !28

._crit_edge:                                      ; preds = %16
  %30 = and i32 %.163, 15
  %31 = icmp eq i32 %30, 15
  br i1 %31, label %32, label %.sink.split

32:                                               ; preds = %._crit_edge
  %33 = getelementptr inbounds nuw i8, ptr %0, i64 368
  %34 = load ptr, ptr %33, align 8, !tbaa !22
  %35 = getelementptr inbounds nuw i8, ptr %0, i64 64
  %36 = getelementptr inbounds nuw i8, ptr %0, i64 96
  tail call void %34(ptr noundef nonnull %35, ptr noundef nonnull %36) #6
  br label %37

37:                                               ; preds = %32, %12
  %.049 = phi ptr [ %17, %32 ], [ %1, %12 ]
  %.046 = phi i64 [ %23, %32 ], [ %2, %12 ]
  %38 = and i64 %.046, -16
  %.not59 = icmp eq i64 %38, 0
  br i1 %.not59, label %46, label %39

39:                                               ; preds = %37
  %40 = getelementptr inbounds nuw i8, ptr %0, i64 360
  %41 = load ptr, ptr %40, align 8, !tbaa !29
  %42 = getelementptr inbounds nuw i8, ptr %0, i64 64
  %43 = getelementptr inbounds nuw i8, ptr %0, i64 96
  tail call void %41(ptr noundef nonnull %42, ptr noundef nonnull %43, ptr noundef %.049, i64 noundef %38) #6
  %44 = getelementptr inbounds nuw i8, ptr %.049, i64 %38
  %45 = and i64 %.046, 15
  br label %46

46:                                               ; preds = %39, %37
  %.251 = phi ptr [ %44, %39 ], [ %.049, %37 ]
  %.248 = phi i64 [ %45, %39 ], [ %.046, %37 ]
  %.not60 = icmp eq i64 %.248, 0
  br i1 %.not60, label %.sink.split, label %47

47:                                               ; preds = %46
  %48 = getelementptr inbounds nuw i8, ptr %0, i64 64
  br label %49

49:                                               ; preds = %47, %49
  %.04566 = phi i64 [ 0, %47 ], [ %55, %49 ]
  %50 = getelementptr inbounds nuw i8, ptr %.251, i64 %.04566
  %51 = load i8, ptr %50, align 1, !tbaa !12
  %52 = getelementptr inbounds nuw [16 x i8], ptr %48, i64 0, i64 %.04566
  %53 = load i8, ptr %52, align 1, !tbaa !12
  %54 = xor i8 %53, %51
  store i8 %54, ptr %52, align 1, !tbaa !12
  %55 = add nuw i64 %.04566, 1
  %exitcond.not = icmp eq i64 %55, %.248
  br i1 %exitcond.not, label %.loopexit.loopexit, label %49, !llvm.loop !30

.loopexit.loopexit:                               ; preds = %49
  %56 = trunc i64 %.248 to i32
  br label %.sink.split

.sink.split:                                      ; preds = %46, %.loopexit.loopexit, %._crit_edge, %.preheader
  %.2.sink = phi i32 [ %25, %._crit_edge ], [ %14, %.preheader ], [ 0, %46 ], [ %56, %.loopexit.loopexit ]
  store i32 %.2.sink, ptr %13, align 4, !tbaa !18
  br label %57

57:                                               ; preds = %.sink.split, %7, %3
  %.052 = phi i32 [ -2, %3 ], [ -1, %7 ], [ 0, %.sink.split ]
  ret i32 %.052
}